target datalayout = "e-m:e-p270:32:32-p271:32:32-p272:64:64-i64:64-i128:128-f80:128-n8:16:32:64-S128"
target triple = "x86_64-unknown-linux-gnu"

%"class.std::fpos" = type { i64, %struct.__mbstate_t }
%struct.__mbstate_t = type { i32, %union.anon.437 }
%union.anon.437 = type { i32 }
%"class.facebook::velox::OutputStream" = type { ptr, ptr }
%"class.facebook::velox::serializer::presto::(anonymous namespace)::CountingOutputStream" = type { %"class.facebook::velox::OutputStream", i64, %"class.std::fpos" }

; Function Attrs: mustprogress nounwind uwtable
define internal { i64, i64 } @_ZNK8facebook5velox10serializer6presto12_GLOBAL__N_120CountingOutputStream5tellpEv(ptr noundef nonnull align 8 dereferenceable(40) %this) unnamed_addr #1 align 2 {
entry:
  %retval = alloca %"class.std::fpos", align 8
  %this.addr = alloca ptr, align 8
  store ptr %this, ptr %this.addr, align 8
  %this1 = load ptr, ptr %this.addr, align 8
  %pos_ = getelementptr inbounds %"class.facebook::velox::serializer::presto::(anonymous namespace)::CountingOutputStream", ptr %this1, i32 0, i32 2
  call void @llvm.memcpy.p0.p0.i64(ptr align 8 %retval, ptr align 8 %pos_, i64 16, i1 false)
  %0 = load { i64, i64 }, ptr %retval, align 8
  ret { i64, i64 } %0
}