; Function Attrs: mustprogress nofree norecurse nosync nounwind willreturn memory(argmem: read) uwtable
define internal { i64, i64 } @_ZNK8facebook5velox10serializer6presto12_GLOBAL__N_120CountingOutputStream5tellpEv(ptr nocapture noundef nonnull readonly align 8 dereferenceable(40) %this) unnamed_addr #28 align 2 {
entry:
  %pos_ = getelementptr inbounds i8, ptr %this, i64 24
  %retval.sroa.0.0.copyload = load i64, ptr %pos_, align 8
  %retval.sroa.2.0.pos_.sroa_idx = getelementptr inbounds i8, ptr %this, i64 32
  %retval.sroa.2.0.copyload = load i64, ptr %retval.sroa.2.0.pos_.sroa_idx, align 8
  %.fca.0.insert = insertvalue { i64, i64 } poison, i64 %retval.sroa.0.0.copyload, 0
  %.fca.1.insert = insertvalue { i64, i64 } %.fca.0.insert, i64 %retval.sroa.2.0.copyload, 1
  ret { i64, i64 } %.fca.1.insert
}